; Function Attrs: nounwind uwtable
define ptr @Abc_NodeStrash(ptr noundef %0, ptr noundef %1, i32 %2) local_unnamed_addr #0 {
  %4 = load ptr, ptr %1, align 8
  %5 = getelementptr inbounds nuw i8, ptr %4, i64 256
  %6 = load ptr, ptr %5, align 8
  %7 = getelementptr inbounds nuw i8, ptr %1, i64 56
  %8 = load ptr, ptr %7, align 8
  %9 = tail call i32 @Abc_NodeIsConst(ptr noundef nonnull %1) #11
  %.not = icmp eq i32 %9, 0
  %10 = ptrtoint ptr %8 to i64
  br i1 %.not, label %11, label %._crit_edge

11:                                               ; preds = %3
  %12 = and i64 %10, -2
  %13 = inttoptr i64 %12 to ptr
  %14 = getelementptr i8, ptr %6, i64 24
  %.val = load ptr, ptr %14, align 8
  %15 = icmp eq ptr %.val, %13
  br i1 %15, label %._crit_edge, label %.preheader

.preheader:                                       ; preds = %11
  %16 = getelementptr i8, ptr %1, i64 28
  %.val2124 = load i32, ptr %16, align 4
  %17 = icmp sgt i32 %.val2124, 0
  br i1 %17, label %.lr.ph, label %.critedge

.lr.ph:                                           ; preds = %.preheader
  %18 = getelementptr i8, ptr %1, i64 32
  br label %20

._crit_edge:                                      ; preds = %3, %11
  %19 = tail call ptr @Abc_AigConst1(ptr noundef %0) #11
  br label %37

20:                                               ; preds = %.lr.ph, %20
  %indvars.iv = phi i64 [ 0, %.lr.ph ], [ %indvars.iv.next, %20 ]
  %.val22 = load ptr, ptr %1, align 8
  %.val23 = load ptr, ptr %18, align 8
  %21 = getelementptr i8, ptr %.val22, i64 32
  %.val22.val = load ptr, ptr %21, align 8
  %22 = getelementptr i8, ptr %.val22.val, i64 8
  %.val22.val.val = load ptr, ptr %22, align 8
  %23 = getelementptr inbounds nuw i32, ptr %.val23, i64 %indvars.iv
  %24 = load i32, ptr %23, align 4
  %25 = sext i32 %24 to i64
  %26 = getelementptr inbounds ptr, ptr %.val22.val.val, i64 %25
  %27 = load ptr, ptr %26, align 8
  %28 = getelementptr inbounds nuw i8, ptr %27, i64 64
  %29 = load ptr, ptr %28, align 8
  %30 = trunc nuw nsw i64 %indvars.iv to i32
  %31 = tail call ptr @Hop_IthVar(ptr noundef %6, i32 noundef %30) #11
  store ptr %29, ptr %31, align 8
  %indvars.iv.next = add nuw nsw i64 %indvars.iv, 1
  %.val21 = load i32, ptr %16, align 4
  %32 = sext i32 %.val21 to i64
  %33 = icmp slt i64 %indvars.iv.next, %32
  br i1 %33, label %20, label %.critedge, !llvm.loop !17

.critedge:                                        ; preds = %20, %.preheader
  %34 = getelementptr inbounds nuw i8, ptr %0, i64 256
  %35 = load ptr, ptr %34, align 8
  tail call void @Abc_NodeStrash_rec(ptr noundef %35, ptr noundef %13)
  tail call void @Hop_ConeUnmark_rec(ptr noundef %13) #11
  %36 = load ptr, ptr %13, align 8
  br label %37

37:                                               ; preds = %.critedge, %._crit_edge
  %.sink28 = phi ptr [ %36, %.critedge ], [ %19, %._crit_edge ]
  %38 = and i64 %10, 1
  %39 = ptrtoint ptr %.sink28 to i64
  %40 = xor i64 %38, %39
  %.020 = inttoptr i64 %40 to ptr
  ret ptr %.020
}